target datalayout = "e-m:e-p270:32:32-p271:32:32-p272:64:64-i64:64-i128:128-f80:128-n8:16:32:64-S128"
target triple = "x86_64-pc-linux-gnu"

%"class.gmx::ImdSession::Impl" = type { i8, ptr, i32, i32, ptr, ptr, i32, ptr, ptr, ptr, ptr, ptr, i32, i32, i32, i32, ptr, ptr, i32, i8, i8, i8, i8, i8, ptr, i32, ptr, ptr, i32, ptr, ptr, ptr, ptr, ptr, %struct.t_block, i32, ptr, ptr, ptr, ptr, ptr, ptr }
%struct.t_block = type { i32, ptr, i32 }

@.str.3 = private unnamed_addr constant [117 x i8] c"generated/home/dtcxzyw/WorkSpace/Projects/compilers/llvm-opt-benchmark/bench/gromacs/gromacs/src/gromacs/imd/imd.cpp\00", align 1
@.str.19 = private unnamed_addr constant [12 x i8] c"(vmd_f_ind)\00", align 1
@.str.20 = private unnamed_addr constant [13 x i8] c"(vmd_forces)\00", align 1
@.str.21 = private unnamed_addr constant [54 x i8] c"Error while reading forces from remote. Disconnecting\00", align 1

; Function Attrs: mustprogress uwtable
define internal noundef i32 @_ZN3gmxL17imd_read_multipleEPNS_9IMDSocketEPci(ptr noundef %0, ptr noundef %1, i32 noundef %2) #0 {
  %4 = alloca i32, align 4
  %5 = alloca ptr, align 8
  %6 = alloca ptr, align 8
  %7 = alloca i32, align 4
  %8 = alloca i32, align 4
  %9 = alloca i32, align 4
  %10 = alloca i32, align 4
  store ptr %0, ptr %5, align 8, !tbaa !308
  store ptr %1, ptr %6, align 8, !tbaa !86
  store i32 %2, ptr %7, align 4, !tbaa !70
  call void @llvm.lifetime.start.p0(i64 4, ptr %8) #17
  call void @llvm.lifetime.start.p0(i64 4, ptr %9) #17
  %11 = load i32, ptr %7, align 4, !tbaa !70
  store i32 %11, ptr %8, align 4, !tbaa !70
  br label %12

12:                                               ; preds = %36, %3
  %13 = load i32, ptr %8, align 4, !tbaa !70
  %14 = icmp ne i32 %13, 0
  br i1 %14, label %15, label %44

15:                                               ; preds = %12
  %16 = load ptr, ptr %5, align 8, !tbaa !308
  %17 = load ptr, ptr %6, align 8, !tbaa !86
  %18 = load i32, ptr %8, align 4, !tbaa !70
  %19 = call noundef i32 @_ZN3gmx12imdsock_readEPNS_9IMDSocketEPci(ptr noundef %16, ptr noundef %17, i32 noundef %18)
  store i32 %19, ptr %9, align 4, !tbaa !70
  %20 = icmp slt i32 %19, 0
  br i1 %20, label %21, label %31

21:                                               ; preds = %15
  %22 = call ptr @__errno_location() #22
  %23 = load i32, ptr %22, align 4, !tbaa !70
  %24 = icmp eq i32 %23, 4
  br i1 %24, label %25, label %26

25:                                               ; preds = %21
  store i32 0, ptr %9, align 4, !tbaa !70
  br label %30

26:                                               ; preds = %21
  %27 = load i32, ptr %7, align 4, !tbaa !70
  %28 = load i32, ptr %8, align 4, !tbaa !70
  %29 = sub nsw i32 %27, %28
  store i32 %29, ptr %4, align 4
  store i32 1, ptr %10, align 4
  br label %48

30:                                               ; preds = %25
  br label %36

31:                                               ; preds = %15
  %32 = load i32, ptr %9, align 4, !tbaa !70
  %33 = icmp eq i32 %32, 0
  br i1 %33, label %34, label %35

34:                                               ; preds = %31
  br label %44

35:                                               ; preds = %31
  br label %36

36:                                               ; preds = %35, %30
  %37 = load i32, ptr %9, align 4, !tbaa !70
  %38 = load i32, ptr %8, align 4, !tbaa !70
  %39 = sub nsw i32 %38, %37
  store i32 %39, ptr %8, align 4, !tbaa !70
  %40 = load i32, ptr %9, align 4, !tbaa !70
  %41 = load ptr, ptr %6, align 8, !tbaa !86
  %42 = sext i32 %40 to i64
  %43 = getelementptr inbounds i8, ptr %41, i64 %42
  store ptr %43, ptr %6, align 8, !tbaa !86
  br label %12, !llvm.loop !318

44:                                               ; preds = %34, %12
  %45 = load i32, ptr %7, align 4, !tbaa !70
  %46 = load i32, ptr %8, align 4, !tbaa !70
  %47 = sub nsw i32 %45, %46
  store i32 %47, ptr %4, align 4
  store i32 1, ptr %10, align 4
  br label %48

48:                                               ; preds = %44, %26
  call void @llvm.lifetime.end.p0(i64 4, ptr %9) #17
  call void @llvm.lifetime.end.p0(i64 4, ptr %8) #17
  %49 = load i32, ptr %4, align 4
  ret i32 %49
}

; Function Attrs: inlinehint mustprogress uwtable
define internal void @_ZL15gmx_srenew_implIfEvPKcS1_iRPT_m(ptr noundef %0, ptr noundef %1, i32 noundef %2, ptr noundef nonnull align 8 dereferenceable(8) %3, i64 noundef %4) #2 {
  %6 = alloca ptr, align 8
  %7 = alloca ptr, align 8
  %8 = alloca i32, align 4
  %9 = alloca ptr, align 8
  %10 = alloca i64, align 8
  store ptr %0, ptr %6, align 8, !tbaa !86
  store ptr %1, ptr %7, align 8, !tbaa !86
  store i32 %2, ptr %8, align 4, !tbaa !70
  store ptr %3, ptr %9, align 8, !tbaa !323
  store i64 %4, ptr %10, align 8, !tbaa !193
  %11 = load ptr, ptr %6, align 8, !tbaa !86
  %12 = load ptr, ptr %7, align 8, !tbaa !86
  %13 = load i32, ptr %8, align 4, !tbaa !70
  %14 = load ptr, ptr %9, align 8, !tbaa !323
  %15 = load ptr, ptr %14, align 8, !tbaa !324
  %16 = load i64, ptr %10, align 8, !tbaa !193
  %17 = call noundef ptr @_Z12save_reallocPKcS0_iPvmm(ptr noundef %11, ptr noundef %12, i32 noundef %13, ptr noundef %15, i64 noundef %16, i64 noundef 4)
  %18 = load ptr, ptr %9, align 8, !tbaa !323
  store ptr %17, ptr %18, align 8, !tbaa !324
  ret void
}

; Function Attrs: inlinehint mustprogress uwtable
define internal void @_ZL15gmx_srenew_implIiEvPKcS1_iRPT_m(ptr noundef %0, ptr noundef %1, i32 noundef %2, ptr noundef nonnull align 8 dereferenceable(8) %3, i64 noundef %4) #2 {
  %6 = alloca ptr, align 8
  %7 = alloca ptr, align 8
  %8 = alloca i32, align 4
  %9 = alloca ptr, align 8
  %10 = alloca i64, align 8
  store ptr %0, ptr %6, align 8, !tbaa !86
  store ptr %1, ptr %7, align 8, !tbaa !86
  store i32 %2, ptr %8, align 4, !tbaa !70
  store ptr %3, ptr %9, align 8, !tbaa !321
  store i64 %4, ptr %10, align 8, !tbaa !193
  %11 = load ptr, ptr %6, align 8, !tbaa !86
  %12 = load ptr, ptr %7, align 8, !tbaa !86
  %13 = load i32, ptr %8, align 4, !tbaa !70
  %14 = load ptr, ptr %9, align 8, !tbaa !321
  %15 = load ptr, ptr %14, align 8, !tbaa !311
  %16 = load i64, ptr %10, align 8, !tbaa !193
  %17 = call noundef ptr @_Z12save_reallocPKcS0_iPvmm(ptr noundef %11, ptr noundef %12, i32 noundef %13, ptr noundef %15, i64 noundef %16, i64 noundef 4)
  %18 = load ptr, ptr %9, align 8, !tbaa !321
  store ptr %17, ptr %18, align 8, !tbaa !311
  ret void
}

; Function Attrs: mustprogress uwtable
define internal noundef zeroext i1 @_ZN3gmxL15imd_recv_mdcommEPNS_9IMDSocketEiPiPf(ptr noundef %0, i32 noundef %1, ptr noundef %2, ptr noundef %3) #0 {
  %5 = alloca i1, align 1
  %6 = alloca ptr, align 8
  %7 = alloca i32, align 4
  %8 = alloca ptr, align 8
  %9 = alloca ptr, align 8
  %10 = alloca i32, align 4
  %11 = alloca i32, align 4
  %12 = alloca i32, align 4
  store ptr %0, ptr %6, align 8, !tbaa !308
  store i32 %1, ptr %7, align 4, !tbaa !70
  store ptr %2, ptr %8, align 8, !tbaa !311
  store ptr %3, ptr %9, align 8, !tbaa !324
  call void @llvm.lifetime.start.p0(i64 4, ptr %10) #17
  %13 = load i32, ptr %7, align 4, !tbaa !70
  %14 = sext i32 %13 to i64
  %15 = mul i64 4, %14
  %16 = trunc i64 %15 to i32
  store i32 %16, ptr %10, align 4, !tbaa !70
  call void @llvm.lifetime.start.p0(i64 4, ptr %11) #17
  %17 = load ptr, ptr %6, align 8, !tbaa !308
  %18 = load ptr, ptr %8, align 8, !tbaa !311
  %19 = load i32, ptr %10, align 4, !tbaa !70
  %20 = call noundef i32 @_ZN3gmxL17imd_read_multipleEPNS_9IMDSocketEPci(ptr noundef %17, ptr noundef %18, i32 noundef %19)
  store i32 %20, ptr %11, align 4, !tbaa !70
  %21 = load i32, ptr %11, align 4, !tbaa !70
  %22 = load i32, ptr %10, align 4, !tbaa !70
  %23 = icmp ne i32 %21, %22
  br i1 %23, label %24, label %25

24:                                               ; preds = %4
  store i1 false, ptr %5, align 1
  store i32 1, ptr %12, align 4
  br label %37

25:                                               ; preds = %4
  %26 = load i32, ptr %7, align 4, !tbaa !70
  %27 = sext i32 %26 to i64
  %28 = mul i64 12, %27
  %29 = trunc i64 %28 to i32
  store i32 %29, ptr %10, align 4, !tbaa !70
  %30 = load ptr, ptr %6, align 8, !tbaa !308
  %31 = load ptr, ptr %9, align 8, !tbaa !324
  %32 = load i32, ptr %10, align 4, !tbaa !70
  %33 = call noundef i32 @_ZN3gmxL17imd_read_multipleEPNS_9IMDSocketEPci(ptr noundef %30, ptr noundef %31, i32 noundef %32)
  store i32 %33, ptr %11, align 4, !tbaa !70
  %34 = load i32, ptr %11, align 4, !tbaa !70
  %35 = load i32, ptr %10, align 4, !tbaa !70
  %36 = icmp eq i32 %34, %35
  store i1 %36, ptr %5, align 1
  store i32 1, ptr %12, align 4
  br label %37

37:                                               ; preds = %25, %24
  call void @llvm.lifetime.end.p0(i64 4, ptr %11) #17
  call void @llvm.lifetime.end.p0(i64 4, ptr %10) #17
  %38 = load i1, ptr %5, align 1
  ret i1 %38
}

; Function Attrs: mustprogress uwtable
define void @_ZN3gmx10ImdSession4Impl16prepareVmdForcesEv(ptr noundef nonnull align 8 dereferenceable(296) %0) #0 align 2 {
  %2 = alloca ptr, align 8
  store ptr %0, ptr %2, align 8, !tbaa !266
  %3 = load ptr, ptr %2, align 8
  %4 = getelementptr inbounds nuw %"class.gmx::ImdSession::Impl", ptr %3, i32 0, i32 26
  %5 = getelementptr inbounds nuw %"class.gmx::ImdSession::Impl", ptr %3, i32 0, i32 25
  %6 = load i32, ptr %5, align 8, !tbaa !320
  %7 = sext i32 %6 to i64
  call void @_ZL15gmx_srenew_implIiEvPKcS1_iRPT_m(ptr noundef @.str.19, ptr noundef @.str.3, i32 noundef 724, ptr noundef nonnull align 8 dereferenceable(8) %4, i64 noundef %7)
  %8 = getelementptr inbounds nuw %"class.gmx::ImdSession::Impl", ptr %3, i32 0, i32 27
  %9 = getelementptr inbounds nuw %"class.gmx::ImdSession::Impl", ptr %3, i32 0, i32 25
  %10 = load i32, ptr %9, align 8, !tbaa !320
  %11 = mul nsw i32 3, %10
  %12 = sext i32 %11 to i64
  call void @_ZL15gmx_srenew_implIfEvPKcS1_iRPT_m(ptr noundef @.str.20, ptr noundef @.str.3, i32 noundef 725, ptr noundef nonnull align 8 dereferenceable(8) %8, i64 noundef %12)
  ret void
}

; Function Attrs: mustprogress uwtable
define void @_ZN3gmx10ImdSession4Impl13readVmdForcesEv(ptr noundef nonnull align 8 dereferenceable(296) %0) #0 align 2 {
  %2 = alloca ptr, align 8
  store ptr %0, ptr %2, align 8, !tbaa !266
  %3 = load ptr, ptr %2, align 8
  %4 = getelementptr inbounds nuw %"class.gmx::ImdSession::Impl", ptr %3, i32 0, i32 18
  %5 = load i32, ptr %4, align 8, !tbaa !325
  %6 = getelementptr inbounds nuw %"class.gmx::ImdSession::Impl", ptr %3, i32 0, i32 25
  store i32 %5, ptr %6, align 8, !tbaa !320
  call void @_ZN3gmx10ImdSession4Impl16prepareVmdForcesEv(ptr noundef nonnull align 8 dereferenceable(296) %3)
  %7 = getelementptr inbounds nuw %"class.gmx::ImdSession::Impl", ptr %3, i32 0, i32 17
  %8 = load ptr, ptr %7, align 8, !tbaa !304
  %9 = getelementptr inbounds nuw %"class.gmx::ImdSession::Impl", ptr %3, i32 0, i32 25
  %10 = load i32, ptr %9, align 8, !tbaa !320
  %11 = getelementptr inbounds nuw %"class.gmx::ImdSession::Impl", ptr %3, i32 0, i32 26
  %12 = load ptr, ptr %11, align 8, !tbaa !326
  %13 = getelementptr inbounds nuw %"class.gmx::ImdSession::Impl", ptr %3, i32 0, i32 27
  %14 = load ptr, ptr %13, align 8, !tbaa !327
  %15 = call noundef zeroext i1 @_ZN3gmxL15imd_recv_mdcommEPNS_9IMDSocketEiPiPf(ptr noundef %8, i32 noundef %10, ptr noundef %12, ptr noundef %14)
  br i1 %15, label %17, label %16

16:                                               ; preds = %1
  call void @_ZN3gmx10ImdSession4Impl15issueFatalErrorEPKc(ptr noundef nonnull align 8 dereferenceable(296) %3, ptr noundef @.str.21)
  br label %17

17:                                               ; preds = %16, %1
  ret void
}