; Function Attrs: mustprogress uwtable
define void @_ZN3gmx10ImdSession4Impl13readVmdForcesEv(ptr noundef nonnull align 8 captures(none) dereferenceable(296) initializes((144, 148)) %0) local_unnamed_addr #0 align 2 {
  %2 = getelementptr inbounds nuw i8, ptr %0, i64 120
  %3 = load i32, ptr %2, align 8, !tbaa !169
  %4 = getelementptr inbounds nuw i8, ptr %0, i64 144
  store i32 %3, ptr %4, align 8, !tbaa !166
  %5 = getelementptr inbounds nuw i8, ptr %0, i64 152
  %6 = sext i32 %3 to i64
  %7 = load ptr, ptr %5, align 8, !tbaa !167
  %8 = tail call noundef ptr @_Z12save_reallocPKcS0_iPvmm(ptr noundef nonnull @.str.19, ptr noundef nonnull @.str.3, i32 noundef 724, ptr noundef %7, i64 noundef range(i64 -2147483648, 2147483648) %6, i64 noundef 4)
  store ptr %8, ptr %5, align 8, !tbaa !167
  %9 = getelementptr inbounds nuw i8, ptr %0, i64 160
  %10 = load i32, ptr %4, align 8, !tbaa !166
  %11 = mul nsw i32 %10, 3
  %12 = sext i32 %11 to i64
  %13 = load ptr, ptr %9, align 8, !tbaa !168
  %14 = tail call noundef ptr @_Z12save_reallocPKcS0_iPvmm(ptr noundef nonnull @.str.20, ptr noundef nonnull @.str.3, i32 noundef 725, ptr noundef %13, i64 noundef range(i64 -2147483648, 2147483648) %12, i64 noundef 4)
  store ptr %14, ptr %9, align 8, !tbaa !168
  %15 = getelementptr inbounds nuw i8, ptr %0, i64 112
  %16 = load ptr, ptr %15, align 8, !tbaa !154
  %17 = load i32, ptr %4, align 8, !tbaa !166
  %18 = shl i32 %17, 2
  %.not18.i.i = icmp eq i32 %18, 0
  br i1 %.not18.i.i, label %.critedge.i, label %.lr.ph.i.i.preheader

.lr.ph.i.i.preheader:                             ; preds = %1
  %19 = load ptr, ptr %5, align 8, !tbaa !170
  br label %.lr.ph.i.i

.lr.ph.i.i:                                       ; preds = %.lr.ph.i.i.preheader, %28
  %.01420.i.i = phi i32 [ %29, %28 ], [ %18, %.lr.ph.i.i.preheader ]
  %.01619.i.i = phi ptr [ %31, %28 ], [ %19, %.lr.ph.i.i.preheader ]
  %20 = tail call noundef i32 @_ZN3gmx12imdsock_readEPNS_9IMDSocketEPci(ptr noundef %16, ptr noundef %.01619.i.i, i32 noundef %.01420.i.i)
  %21 = icmp slt i32 %20, 0
  br i1 %21, label %22, label %26

22:                                               ; preds = %.lr.ph.i.i
  %23 = tail call ptr @__errno_location() #29
  %24 = load i32, ptr %23, align 4, !tbaa !161
  %25 = icmp eq i32 %24, 4
  br i1 %25, label %28, label %.loopexit

26:                                               ; preds = %.lr.ph.i.i
  %27 = icmp eq i32 %20, 0
  br i1 %27, label %.loopexit, label %28

28:                                               ; preds = %26, %22
  %.0.i.i = phi i32 [ %20, %26 ], [ 0, %22 ]
  %29 = sub nsw i32 %.01420.i.i, %.0.i.i
  %30 = zext nneg i32 %.0.i.i to i64
  %31 = getelementptr inbounds nuw i8, ptr %.01619.i.i, i64 %30
  %.not.i.i = icmp eq i32 %29, 0
  br i1 %.not.i.i, label %.critedge.i, label %.lr.ph.i.i, !llvm.loop !164

.critedge.i:                                      ; preds = %28, %1
  %32 = mul i32 %17, 12
  %.not18.i12.i = icmp eq i32 %32, 0
  br i1 %.not18.i12.i, label %_ZN3gmxL15imd_recv_mdcommEPNS_9IMDSocketEiPiPf.exit, label %.lr.ph.i13.i

.lr.ph.i13.i:                                     ; preds = %.critedge.i, %41
  %.01420.i14.i = phi i32 [ %42, %41 ], [ %32, %.critedge.i ]
  %.01619.i15.i = phi ptr [ %44, %41 ], [ %14, %.critedge.i ]
  %33 = tail call noundef i32 @_ZN3gmx12imdsock_readEPNS_9IMDSocketEPci(ptr noundef %16, ptr noundef %.01619.i15.i, i32 noundef %.01420.i14.i)
  %34 = icmp slt i32 %33, 0
  br i1 %34, label %35, label %39

35:                                               ; preds = %.lr.ph.i13.i
  %36 = tail call ptr @__errno_location() #29
  %37 = load i32, ptr %36, align 4, !tbaa !161
  %38 = icmp eq i32 %37, 4
  br i1 %38, label %41, label %.loopexit

39:                                               ; preds = %.lr.ph.i13.i
  %40 = icmp eq i32 %33, 0
  br i1 %40, label %.loopexit, label %41

41:                                               ; preds = %39, %35
  %.0.i16.i = phi i32 [ %33, %39 ], [ 0, %35 ]
  %42 = sub nsw i32 %.01420.i14.i, %.0.i16.i
  %43 = zext nneg i32 %.0.i16.i to i64
  %44 = getelementptr inbounds nuw i8, ptr %.01619.i15.i, i64 %43
  %.not.i17.i = icmp eq i32 %42, 0
  br i1 %.not.i17.i, label %_ZN3gmxL15imd_recv_mdcommEPNS_9IMDSocketEiPiPf.exit, label %.lr.ph.i13.i, !llvm.loop !164

.loopexit:                                        ; preds = %22, %26, %35, %39
  tail call void @_ZN3gmx10ImdSession4Impl15issueFatalErrorEPKc(ptr noundef nonnull align 8 dereferenceable(296) %0, ptr noundef nonnull @.str.21)
  br label %_ZN3gmxL15imd_recv_mdcommEPNS_9IMDSocketEiPiPf.exit

_ZN3gmxL15imd_recv_mdcommEPNS_9IMDSocketEiPiPf.exit: ; preds = %41, %.critedge.i, %.loopexit
  ret void
}